; Function Attrs: mustprogress uwtable
define hidden noundef zeroext i1 @_ZNK6google8protobuf8internal11AnyMetadata16InternalUnpackToENS0_20stringpiece_internal11StringPieceEPNS0_11MessageLiteE(ptr noundef nonnull readonly align 8 captures(none) dereferenceable(16) %0, ptr readonly captures(none) %1, i64 %2, ptr noundef %3) local_unnamed_addr #3 align 2 {
  %5 = load ptr, ptr %0, align 8, !tbaa !12
  %6 = load ptr, ptr %5, align 8, !tbaa !26
  %7 = ptrtoint ptr %6 to i64
  %8 = and i64 %7, -2
  %9 = inttoptr i64 %8 to ptr
  %10 = getelementptr inbounds nuw i8, ptr %9, i64 8
  %11 = load i64, ptr %10, align 8, !tbaa !24
  %12 = add i64 %2, 1
  %.not.i = icmp ult i64 %11, %12
  br i1 %.not.i, label %_ZNK6google8protobuf8internal11AnyMetadata10InternalIsENS0_20stringpiece_internal11StringPieceE.exit.thread, label %13

13:                                               ; preds = %4
  %14 = load ptr, ptr %9, align 8, !tbaa !21
  %15 = xor i64 %2, -1
  %16 = getelementptr i8, ptr %14, i64 %11
  %17 = getelementptr i8, ptr %16, i64 %15
  %18 = load i8, ptr %17, align 1, !tbaa !3
  %19 = icmp ne i8 %18, 47
  %.not.i.i = icmp ult i64 %11, %2
  %or.cond.i = or i1 %.not.i.i, %19
  br i1 %or.cond.i, label %_ZNK6google8protobuf8internal11AnyMetadata10InternalIsENS0_20stringpiece_internal11StringPieceE.exit.thread, label %_ZNK6google8protobuf8internal11AnyMetadata10InternalIsENS0_20stringpiece_internal11StringPieceE.exit

_ZNK6google8protobuf8internal11AnyMetadata10InternalIsENS0_20stringpiece_internal11StringPieceE.exit: ; preds = %13
  %20 = sub i64 0, %2
  %21 = getelementptr inbounds i8, ptr %16, i64 %20
  %bcmp.i.i = tail call i32 @bcmp(ptr %21, ptr readonly %1, i64 %2)
  %22 = icmp eq i32 %bcmp.i.i, 0
  br i1 %22, label %23, label %_ZNK6google8protobuf8internal11AnyMetadata10InternalIsENS0_20stringpiece_internal11StringPieceE.exit.thread

23:                                               ; preds = %_ZNK6google8protobuf8internal11AnyMetadata10InternalIsENS0_20stringpiece_internal11StringPieceE.exit
  %24 = getelementptr inbounds nuw i8, ptr %0, i64 8
  %25 = load ptr, ptr %24, align 8, !tbaa !25
  %26 = load ptr, ptr %25, align 8, !tbaa !26
  %27 = ptrtoint ptr %26 to i64
  %28 = and i64 %27, -2
  %29 = inttoptr i64 %28 to ptr
  %30 = tail call noundef zeroext i1 @_ZN6google8protobuf11MessageLite15ParseFromStringERKNSt7__cxx1112basic_stringIcSt11char_traitsIcESaIcEEE(ptr noundef nonnull align 8 dereferenceable(16) %3, ptr noundef nonnull align 8 dereferenceable(32) %29)
  br label %_ZNK6google8protobuf8internal11AnyMetadata10InternalIsENS0_20stringpiece_internal11StringPieceE.exit.thread

_ZNK6google8protobuf8internal11AnyMetadata10InternalIsENS0_20stringpiece_internal11StringPieceE.exit.thread: ; preds = %4, %13, %_ZNK6google8protobuf8internal11AnyMetadata10InternalIsENS0_20stringpiece_internal11StringPieceE.exit, %23
  %.0 = phi i1 [ %30, %23 ], [ false, %_ZNK6google8protobuf8internal11AnyMetadata10InternalIsENS0_20stringpiece_internal11StringPieceE.exit ], [ false, %13 ], [ false, %4 ]
  ret i1 %.0
}